target datalayout = "e-m:e-p270:32:32-p271:32:32-p272:64:64-i64:64-i128:128-f80:128-n8:16:32:64-S128"
target triple = "x86_64-pc-linux-gnu"

%struct.re_registers = type { i32, i32, ptr, ptr }
%struct.RMatch = type { %struct.RBasic, i64, i64 }
%struct.RBasic = type { i64, i64 }
%struct.rb_matchext_struct = type { %struct.re_registers, ptr, i32 }

@rb_eTypeError = external global i64, align 8
@.str.76 = private unnamed_addr constant [24 x i8] c"uninitialized MatchData\00", align 1

; Function Attrs: inlinehint nounwind sspstrong willreturn memory(none) uwtable
define internal zeroext i1 @RB_NIL_P(i64 noundef %0) #7 {
  %2 = alloca i64, align 8
  store i64 %0, ptr %2, align 8, !tbaa !11
  %3 = load i64, ptr %2, align 8, !tbaa !11
  %4 = icmp eq i64 %3, 4
  ret i1 %4
}

; Function Attrs: inlinehint nounwind sspstrong willreturn memory(read) uwtable
define internal ptr @RMATCH_REGS(i64 noundef %0) #8 {
  %2 = alloca i64, align 8
  store i64 %0, ptr %2, align 8, !tbaa !11
  %3 = load i64, ptr %2, align 8, !tbaa !11
  %4 = inttoptr i64 %3 to ptr
  %5 = getelementptr i8, ptr %4, i64 32
  %6 = getelementptr inbounds nuw %struct.rb_matchext_struct, ptr %5, i32 0, i32 0
  ret ptr %6
}

; Function Attrs: nounwind sspstrong uwtable
define dso_local i64 @rb_reg_nth_match(i32 noundef %0, i64 noundef %1) #0 {
  %3 = alloca i64, align 8
  %4 = alloca i32, align 4
  %5 = alloca i64, align 8
  %6 = alloca i64, align 8
  %7 = alloca i64, align 8
  %8 = alloca i64, align 8
  %9 = alloca i64, align 8
  %10 = alloca ptr, align 8
  %11 = alloca i32, align 4
  store i32 %0, ptr %4, align 4, !tbaa !16
  store i64 %1, ptr %5, align 8, !tbaa !11
  call void @llvm.lifetime.start.p0(i64 8, ptr %6) #28
  call void @llvm.lifetime.start.p0(i64 8, ptr %7) #28
  call void @llvm.lifetime.start.p0(i64 8, ptr %8) #28
  call void @llvm.lifetime.start.p0(i64 8, ptr %9) #28
  call void @llvm.lifetime.start.p0(i64 8, ptr %10) #28
  %12 = load i64, ptr %5, align 8, !tbaa !11
  %13 = call zeroext i1 @RB_NIL_P(i64 noundef %12) #31
  br i1 %13, label %14, label %15

14:                                               ; preds = %2
  store i64 4, ptr %3, align 8
  store i32 1, ptr %11, align 4
  br label %69

15:                                               ; preds = %2
  %16 = load i64, ptr %5, align 8, !tbaa !11
  %17 = call i64 @match_check(i64 noundef %16)
  %18 = load i64, ptr %5, align 8, !tbaa !11
  %19 = call ptr @RMATCH_REGS(i64 noundef %18) #29
  store ptr %19, ptr %10, align 8, !tbaa !32
  %20 = load i32, ptr %4, align 4, !tbaa !16
  %21 = load ptr, ptr %10, align 8, !tbaa !32
  %22 = getelementptr inbounds nuw %struct.re_registers, ptr %21, i32 0, i32 1
  %23 = load i32, ptr %22, align 4, !tbaa !40
  %24 = icmp sge i32 %20, %23
  br i1 %24, label %25, label %26

25:                                               ; preds = %15
  store i64 4, ptr %3, align 8
  store i32 1, ptr %11, align 4
  br label %69

26:                                               ; preds = %15
  %27 = load i32, ptr %4, align 4, !tbaa !16
  %28 = icmp slt i32 %27, 0
  br i1 %28, label %29, label %39

29:                                               ; preds = %26
  %30 = load ptr, ptr %10, align 8, !tbaa !32
  %31 = getelementptr inbounds nuw %struct.re_registers, ptr %30, i32 0, i32 1
  %32 = load i32, ptr %31, align 4, !tbaa !40
  %33 = load i32, ptr %4, align 4, !tbaa !16
  %34 = add i32 %33, %32
  store i32 %34, ptr %4, align 4, !tbaa !16
  %35 = load i32, ptr %4, align 4, !tbaa !16
  %36 = icmp sle i32 %35, 0
  br i1 %36, label %37, label %38

37:                                               ; preds = %29
  store i64 4, ptr %3, align 8
  store i32 1, ptr %11, align 4
  br label %69

38:                                               ; preds = %29
  br label %39

39:                                               ; preds = %38, %26
  %40 = load ptr, ptr %10, align 8, !tbaa !32
  %41 = getelementptr inbounds nuw %struct.re_registers, ptr %40, i32 0, i32 2
  %42 = load ptr, ptr %41, align 8, !tbaa !80
  %43 = load i32, ptr %4, align 4, !tbaa !16
  %44 = sext i32 %43 to i64
  %45 = getelementptr i64, ptr %42, i64 %44
  %46 = load i64, ptr %45, align 8, !tbaa !11
  store i64 %46, ptr %7, align 8, !tbaa !11
  %47 = load i64, ptr %7, align 8, !tbaa !11
  %48 = icmp eq i64 %47, -1
  br i1 %48, label %49, label %50

49:                                               ; preds = %39
  store i64 4, ptr %3, align 8
  store i32 1, ptr %11, align 4
  br label %69

50:                                               ; preds = %39
  %51 = load ptr, ptr %10, align 8, !tbaa !32
  %52 = getelementptr inbounds nuw %struct.re_registers, ptr %51, i32 0, i32 3
  %53 = load ptr, ptr %52, align 8, !tbaa !81
  %54 = load i32, ptr %4, align 4, !tbaa !16
  %55 = sext i32 %54 to i64
  %56 = getelementptr i64, ptr %53, i64 %55
  %57 = load i64, ptr %56, align 8, !tbaa !11
  store i64 %57, ptr %8, align 8, !tbaa !11
  %58 = load i64, ptr %8, align 8, !tbaa !11
  %59 = load i64, ptr %7, align 8, !tbaa !11
  %60 = sub i64 %58, %59
  store i64 %60, ptr %9, align 8, !tbaa !11
  %61 = load i64, ptr %5, align 8, !tbaa !11
  %62 = inttoptr i64 %61 to ptr
  %63 = getelementptr inbounds nuw %struct.RMatch, ptr %62, i32 0, i32 1
  %64 = load i64, ptr %63, align 8, !tbaa !43
  %65 = load i64, ptr %7, align 8, !tbaa !11
  %66 = load i64, ptr %9, align 8, !tbaa !11
  %67 = call i64 @rb_str_subseq(i64 noundef %64, i64 noundef %65, i64 noundef %66)
  store i64 %67, ptr %6, align 8, !tbaa !11
  %68 = load i64, ptr %6, align 8, !tbaa !11
  store i64 %68, ptr %3, align 8
  store i32 1, ptr %11, align 4
  br label %69

69:                                               ; preds = %50, %49, %37, %25, %14
  call void @llvm.lifetime.end.p0(i64 8, ptr %10) #28
  call void @llvm.lifetime.end.p0(i64 8, ptr %9) #28
  call void @llvm.lifetime.end.p0(i64 8, ptr %8) #28
  call void @llvm.lifetime.end.p0(i64 8, ptr %7) #28
  call void @llvm.lifetime.end.p0(i64 8, ptr %6) #28
  %70 = load i64, ptr %3, align 8
  ret i64 %70
}

; Function Attrs: inlinehint nounwind sspstrong uwtable
define internal i32 @RB_FIX2INT(i64 noundef %0) #3 {
  %2 = alloca i64, align 8
  %3 = alloca i64, align 8
  store i64 %0, ptr %2, align 8, !tbaa !11
  call void @llvm.lifetime.start.p0(i64 8, ptr %3) #28
  %4 = load i64, ptr %2, align 8, !tbaa !11
  %5 = call i64 @rb_fix2int(i64 noundef %4)
  store i64 %5, ptr %3, align 8, !tbaa !11
  %6 = load i64, ptr %3, align 8, !tbaa !11
  %7 = trunc i64 %6 to i32
  call void @llvm.lifetime.end.p0(i64 8, ptr %3) #28
  ret i32 %7
}

; Function Attrs: inlinehint nounwind sspstrong willreturn memory(none) uwtable
define internal zeroext i1 @RB_FIXNUM_P(i64 noundef %0) #7 {
  %2 = alloca i64, align 8
  store i64 %0, ptr %2, align 8, !tbaa !11
  %3 = load i64, ptr %2, align 8, !tbaa !11
  %4 = and i64 %3, 1
  %5 = icmp ne i64 %4, 0
  ret i1 %5
}

; Function Attrs: nounwind sspstrong uwtable
define internal i64 @match_check(i64 noundef %0) #0 {
  %2 = alloca i64, align 8
  store i64 %0, ptr %2, align 8, !tbaa !11
  %3 = load i64, ptr %2, align 8, !tbaa !11
  %4 = inttoptr i64 %3 to ptr
  %5 = getelementptr inbounds nuw %struct.RMatch, ptr %4, i32 0, i32 2
  %6 = load i64, ptr %5, align 8, !tbaa !37
  %7 = icmp ne i64 %6, 0
  br i1 %7, label %10, label %8

8:                                                ; preds = %1
  %9 = load i64, ptr @rb_eTypeError, align 8, !tbaa !11
  call void (i64, ptr, ...) @rb_raise(i64 noundef %9, ptr noundef @.str.76) #30
  unreachable

10:                                               ; preds = %1
  %11 = load i64, ptr %2, align 8, !tbaa !11
  ret i64 %11
}

; Function Attrs: nounwind sspstrong uwtable
define internal i64 @match_values_at(i32 noundef %0, ptr noundef %1, i64 noundef %2) #0 {
  %4 = alloca i32, align 4
  %5 = alloca ptr, align 8
  %6 = alloca i64, align 8
  %7 = alloca i64, align 8
  %8 = alloca i32, align 4
  %9 = alloca i32, align 4
  store i32 %0, ptr %4, align 4, !tbaa !16
  store ptr %1, ptr %5, align 8, !tbaa !62
  store i64 %2, ptr %6, align 8, !tbaa !11
  call void @llvm.lifetime.start.p0(i64 8, ptr %7) #28
  call void @llvm.lifetime.start.p0(i64 4, ptr %8) #28
  %10 = load i64, ptr %6, align 8, !tbaa !11
  %11 = call i64 @match_check(i64 noundef %10)
  %12 = load i32, ptr %4, align 4, !tbaa !16
  %13 = sext i32 %12 to i64
  %14 = call i64 @rb_ary_new_capa(i64 noundef %13)
  store i64 %14, ptr %7, align 8, !tbaa !11
  store i32 0, ptr %8, align 4, !tbaa !16
  br label %15

15:                                               ; preds = %69, %3
  %16 = load i32, ptr %8, align 4, !tbaa !16
  %17 = load i32, ptr %4, align 4, !tbaa !16
  %18 = icmp slt i32 %16, %17
  br i1 %18, label %19, label %72

19:                                               ; preds = %15
  %20 = load ptr, ptr %5, align 8, !tbaa !62
  %21 = load i32, ptr %8, align 4, !tbaa !16
  %22 = sext i32 %21 to i64
  %23 = getelementptr i64, ptr %20, i64 %22
  %24 = load i64, ptr %23, align 8, !tbaa !11
  %25 = call zeroext i1 @RB_FIXNUM_P(i64 noundef %24) #31
  br i1 %25, label %26, label %37

26:                                               ; preds = %19
  %27 = load i64, ptr %7, align 8, !tbaa !11
  %28 = load ptr, ptr %5, align 8, !tbaa !62
  %29 = load i32, ptr %8, align 4, !tbaa !16
  %30 = sext i32 %29 to i64
  %31 = getelementptr i64, ptr %28, i64 %30
  %32 = load i64, ptr %31, align 8, !tbaa !11
  %33 = call i32 @RB_FIX2INT(i64 noundef %32)
  %34 = load i64, ptr %6, align 8, !tbaa !11
  %35 = call i64 @rb_reg_nth_match(i32 noundef %33, i64 noundef %34)
  %36 = call i64 @rb_ary_push(i64 noundef %27, i64 noundef %35)
  br label %68

37:                                               ; preds = %19
  call void @llvm.lifetime.start.p0(i64 4, ptr %9) #28
  %38 = load i64, ptr %6, align 8, !tbaa !11
  %39 = call ptr @RMATCH_REGS(i64 noundef %38) #29
  %40 = load i64, ptr %6, align 8, !tbaa !11
  %41 = inttoptr i64 %40 to ptr
  %42 = getelementptr inbounds nuw %struct.RMatch, ptr %41, i32 0, i32 2
  %43 = load i64, ptr %42, align 8, !tbaa !37
  %44 = load ptr, ptr %5, align 8, !tbaa !62
  %45 = load i32, ptr %8, align 4, !tbaa !16
  %46 = sext i32 %45 to i64
  %47 = getelementptr i64, ptr %44, i64 %46
  %48 = load i64, ptr %47, align 8, !tbaa !11
  %49 = call i32 @namev_to_backref_number(ptr noundef %39, i64 noundef %43, i64 noundef %48)
  store i32 %49, ptr %9, align 4, !tbaa !16
  %50 = load i32, ptr %9, align 4, !tbaa !16
  %51 = icmp sge i32 %50, 0
  br i1 %51, label %52, label %58

52:                                               ; preds = %37
  %53 = load i64, ptr %7, align 8, !tbaa !11
  %54 = load i32, ptr %9, align 4, !tbaa !16
  %55 = load i64, ptr %6, align 8, !tbaa !11
  %56 = call i64 @rb_reg_nth_match(i32 noundef %54, i64 noundef %55)
  %57 = call i64 @rb_ary_push(i64 noundef %53, i64 noundef %56)
  br label %67

58:                                               ; preds = %37
  %59 = load i64, ptr %6, align 8, !tbaa !11
  %60 = load ptr, ptr %5, align 8, !tbaa !62
  %61 = load i32, ptr %8, align 4, !tbaa !16
  %62 = sext i32 %61 to i64
  %63 = getelementptr i64, ptr %60, i64 %62
  %64 = load i64, ptr %63, align 8, !tbaa !11
  %65 = load i64, ptr %7, align 8, !tbaa !11
  %66 = call i64 @match_ary_aref(i64 noundef %59, i64 noundef %64, i64 noundef %65)
  br label %67

67:                                               ; preds = %58, %52
  call void @llvm.lifetime.end.p0(i64 4, ptr %9) #28
  br label %68

68:                                               ; preds = %67, %26
  br label %69

69:                                               ; preds = %68
  %70 = load i32, ptr %8, align 4, !tbaa !16
  %71 = add i32 %70, 1
  store i32 %71, ptr %8, align 4, !tbaa !16
  br label %15, !llvm.loop !116

72:                                               ; preds = %15
  %73 = load i64, ptr %7, align 8, !tbaa !11
  call void @llvm.lifetime.end.p0(i64 4, ptr %8) #28
  call void @llvm.lifetime.end.p0(i64 8, ptr %7) #28
  ret i64 %73
}