; Function Attrs: nounwind sspstrong uwtable
define internal i64 @match_values_at(i32 noundef %0, ptr noundef readonly captures(none) %1, i64 noundef %2) #2 {
  %4 = inttoptr i64 %2 to ptr
  %5 = getelementptr inbounds nuw i8, ptr %4, i64 24
  %6 = load i64, ptr %5, align 8, !tbaa !31
  %.not.i = icmp eq i64 %6, 0
  br i1 %.not.i, label %7, label %match_check.exit

7:                                                ; preds = %3
  %8 = load i64, ptr @rb_eTypeError, align 8, !tbaa !18
  tail call void (i64, ptr, ...) @rb_raise(i64 noundef %8, ptr noundef nonnull @.str.76) #30
  unreachable

match_check.exit:                                 ; preds = %3
  %9 = sext i32 %0 to i64
  %10 = tail call i64 @rb_ary_new_capa(i64 noundef %9) #29
  %11 = icmp sgt i32 %0, 0
  br i1 %11, label %.lr.ph, label %._crit_edge

.lr.ph:                                           ; preds = %match_check.exit
  %12 = icmp eq i64 %2, 4
  %13 = getelementptr i8, ptr %4, i64 36
  %14 = getelementptr i8, ptr %4, i64 40
  %15 = getelementptr i8, ptr %4, i64 48
  %16 = getelementptr inbounds nuw i8, ptr %4, i64 16
  %17 = getelementptr i8, ptr %4, i64 32
  %wide.trip.count = zext nneg i32 %0 to i64
  br label %18

18:                                               ; preds = %.lr.ph, %76
  %indvars.iv = phi i64 [ 0, %.lr.ph ], [ %indvars.iv.next, %76 ]
  %19 = getelementptr i64, ptr %1, i64 %indvars.iv
  %20 = load i64, ptr %19, align 8, !tbaa !18
  %21 = and i64 %20, 1
  %.not = icmp eq i64 %21, 0
  br i1 %.not, label %49, label %22

22:                                               ; preds = %18
  %23 = tail call i64 @rb_fix2int(i64 noundef %20) #29
  %24 = trunc i64 %23 to i32
  br i1 %12, label %rb_reg_nth_match.exit, label %25

25:                                               ; preds = %22
  %26 = load i64, ptr %5, align 8, !tbaa !31
  %.not.i.i = icmp eq i64 %26, 0
  br i1 %.not.i.i, label %27, label %match_check.exit.i

27:                                               ; preds = %25
  %28 = load i64, ptr @rb_eTypeError, align 8, !tbaa !18
  tail call void (i64, ptr, ...) @rb_raise(i64 noundef %28, ptr noundef nonnull @.str.76) #30
  unreachable

match_check.exit.i:                               ; preds = %25
  %29 = load i32, ptr %13, align 4, !tbaa !40
  %.not.i24 = icmp sgt i32 %29, %24
  br i1 %.not.i24, label %30, label %rb_reg_nth_match.exit

30:                                               ; preds = %match_check.exit.i
  %31 = icmp slt i32 %24, 0
  br i1 %31, label %32, label %35

32:                                               ; preds = %30
  %33 = add i32 %29, %24
  %34 = icmp slt i32 %33, 1
  br i1 %34, label %rb_reg_nth_match.exit, label %35

35:                                               ; preds = %32, %30
  %.020.i = phi i32 [ %33, %32 ], [ %24, %30 ]
  %36 = load ptr, ptr %14, align 8, !tbaa !92
  %37 = zext nneg i32 %.020.i to i64
  %38 = getelementptr i64, ptr %36, i64 %37
  %39 = load i64, ptr %38, align 8, !tbaa !18
  %40 = icmp eq i64 %39, -1
  br i1 %40, label %rb_reg_nth_match.exit, label %41

41:                                               ; preds = %35
  %42 = load ptr, ptr %15, align 8, !tbaa !93
  %43 = getelementptr i64, ptr %42, i64 %37
  %44 = load i64, ptr %43, align 8, !tbaa !18
  %45 = sub i64 %44, %39
  %46 = load i64, ptr %16, align 8, !tbaa !94
  %47 = tail call i64 @rb_str_subseq(i64 noundef %46, i64 noundef %39, i64 noundef %45) #29
  br label %rb_reg_nth_match.exit

rb_reg_nth_match.exit:                            ; preds = %22, %match_check.exit.i, %32, %35, %41
  %.0.i = phi i64 [ %47, %41 ], [ 4, %22 ], [ 4, %match_check.exit.i ], [ 4, %32 ], [ 4, %35 ]
  %48 = tail call i64 @rb_ary_push(i64 noundef %10, i64 noundef %.0.i) #29
  br label %76

49:                                               ; preds = %18
  %50 = load i64, ptr %5, align 8, !tbaa !31
  %51 = tail call fastcc i32 @namev_to_backref_number(ptr noundef %17, i64 noundef %50, i64 noundef %20)
  %52 = icmp sgt i32 %51, -1
  br i1 %52, label %53, label %73

53:                                               ; preds = %49
  br i1 %12, label %rb_reg_nth_match.exit30, label %54

54:                                               ; preds = %53
  %55 = load i64, ptr %5, align 8, !tbaa !31
  %.not.i.i25 = icmp eq i64 %55, 0
  br i1 %.not.i.i25, label %56, label %match_check.exit.i26

56:                                               ; preds = %54
  %57 = load i64, ptr @rb_eTypeError, align 8, !tbaa !18
  tail call void (i64, ptr, ...) @rb_raise(i64 noundef %57, ptr noundef nonnull @.str.76) #30
  unreachable

match_check.exit.i26:                             ; preds = %54
  %58 = load i32, ptr %13, align 4, !tbaa !40
  %.not.i27 = icmp slt i32 %51, %58
  br i1 %.not.i27, label %59, label %rb_reg_nth_match.exit30

59:                                               ; preds = %match_check.exit.i26
  %60 = load ptr, ptr %14, align 8, !tbaa !92
  %61 = zext nneg i32 %51 to i64
  %62 = getelementptr i64, ptr %60, i64 %61
  %63 = load i64, ptr %62, align 8, !tbaa !18
  %64 = icmp eq i64 %63, -1
  br i1 %64, label %rb_reg_nth_match.exit30, label %65

65:                                               ; preds = %59
  %66 = load ptr, ptr %15, align 8, !tbaa !93
  %67 = getelementptr i64, ptr %66, i64 %61
  %68 = load i64, ptr %67, align 8, !tbaa !18
  %69 = sub i64 %68, %63
  %70 = load i64, ptr %16, align 8, !tbaa !94
  %71 = tail call i64 @rb_str_subseq(i64 noundef %70, i64 noundef %63, i64 noundef %69) #29
  br label %rb_reg_nth_match.exit30

rb_reg_nth_match.exit30:                          ; preds = %53, %match_check.exit.i26, %59, %65
  %.0.i28 = phi i64 [ %71, %65 ], [ 4, %53 ], [ 4, %match_check.exit.i26 ], [ 4, %59 ]
  %72 = tail call i64 @rb_ary_push(i64 noundef %10, i64 noundef %.0.i28) #29
  br label %76

73:                                               ; preds = %49
  %74 = load i64, ptr %19, align 8, !tbaa !18
  %75 = tail call fastcc i64 @match_ary_aref(i64 noundef %2, i64 noundef %74, i64 noundef %10)
  br label %76

76:                                               ; preds = %rb_reg_nth_match.exit30, %73, %rb_reg_nth_match.exit
  %indvars.iv.next = add nuw nsw i64 %indvars.iv, 1
  %exitcond.not = icmp eq i64 %indvars.iv.next, %wide.trip.count
  br i1 %exitcond.not, label %._crit_edge, label %18, !llvm.loop !238

._crit_edge:                                      ; preds = %76, %match_check.exit
  ret i64 %10
}